(dp1
S'output'
p2
S"<type 'exceptions.UnboundLocalError'> local variable 'tabla' referenced before assignment"
p3
sS'layer'
p4
S'D:\\web2py\\applications\\evento\\controllers/imprimir.py'
p5
sS'code'
p6
S'@auth.requires_login()\ndef imprimir():\n\n\treturn dict()\ndef print_fecha1():\n\tfrom reportlab.platypus import *\n\tfrom reportlab.lib.styles import getSampleStyleSheet\n\tfrom reportlab.rl_config import defaultPageSize\n\tfrom reportlab.lib.units import inch, mm\n\tfrom reportlab.lib.enums import TA_LEFT, TA_RIGHT, TA_CENTER, TA_JUSTIFY\n\tfrom reportlab.lib import colors\n\tfrom uuid import uuid4\n\tfrom cgi import escape\n\tfrom reportlab.platypus import (SimpleDocTemplate, PageBreak, Image, Spacer,\n\tParagraph, Table, TableStyle)\n\tfrom reportlab.lib.styles import getSampleStyleSheet\n\tfrom reportlab.lib.pagesizes import A4\n\tfrom reportlab.lib import colors\n\tfrom reportlab.lib.pagesizes import letter\n\timport os\n\tfrom os import startfile\n\timport json \n\n\tset_evento=db(db.evento.fecha=="11-06-2019").select()\n\n\t#for x in set_evento:\n\t\t#nombre=x.nom_ape\n\t\t#dni=x.dni\n\t\t#tel=x.telefono\n\t\t#escuela=x.escuela\n\t\t#fecha=x.fecha\n\n    \t#titulo = "Listado de asistencia fecha 11/06/2019"\n    \t#encabezado = "Primer p\xc3\xa1rrafo"\n    \t\n\n    \tdoc = SimpleDocTemplate("evento.pdf", pagesize=letter,\n                        rightMargin=72, leftMargin=72,\n                        topMargin=72, bottomMargin=18)\n\t\t\n    \tstory = []\n    \tlista=[("Nombre y Apellido","Dni","Telefono","Escuela","Fecha","Firma",)]\n    \ttabla=tabla.styles\n\n    \t\n\t\n    \t\n    \t\n\n    \t\n\t\n    \t\n\treturn dict(set_evento=set_evento,story=story,Table=Table,lista=lista,doc=doc)\n\n   \t\n    \treturn dict()\ndef imprimiendo_fecha1():\n\tfrom reportlab.platypus import *\n\tfrom reportlab.lib.styles import getSampleStyleSheet\n\tfrom reportlab.rl_config import defaultPageSize\n\tfrom reportlab.lib.units import inch, mm\n\tfrom reportlab.lib.enums import TA_LEFT, TA_RIGHT, TA_CENTER, TA_JUSTIFY\n\tfrom reportlab.lib import colors\n\tfrom uuid import uuid4\n\tfrom cgi import escape\n\tfrom reportlab.platypus import (SimpleDocTemplate, PageBreak, Image, Spacer,\n\tParagraph, Table, TableStyle)\n\tfrom reportlab.lib.styles import getSampleStyleSheet\n\tfrom reportlab.lib.pagesizes import A4\n\tfrom reportlab.lib import colors\n\timport os\n\n\t\n\treturn (data,dict())\n\n\t\ndef print_fecha2():\n\treturn dict()\n\nresponse._vars=response._caller(print_fecha1)\n'
p7
sS'snapshot'
p8
(dp9
S'exception'
p10
(dp11
S'__hash__'
p12
S"<method-wrapper '__hash__' of exceptions.UnboundLocalError object>"
p13
sS'__setattr__'
p14
S"<method-wrapper '__setattr__' of exceptions.UnboundLocalError object>"
p15
sS'__reduce_ex__'
p16
S'<built-in method __reduce_ex__ of exceptions.UnboundLocalError object>'
p17
sS'__getslice__'
p18
S"<method-wrapper '__getslice__' of exceptions.UnboundLocalError object>"
p19
sS'__getitem__'
p20
S"<method-wrapper '__getitem__' of exceptions.UnboundLocalError object>"
p21
sS'__setstate__'
p22
S'<built-in method __setstate__ of exceptions.UnboundLocalError object>'
p23
sS'__reduce__'
p24
S'<built-in method __reduce__ of exceptions.UnboundLocalError object>'
p25
sS'__str__'
p26
S"<method-wrapper '__str__' of exceptions.UnboundLocalError object>"
p27
sS'__format__'
p28
S'<built-in method __format__ of exceptions.UnboundLocalError object>'
p29
sS'__getattribute__'
p30
S"<method-wrapper '__getattribute__' of exceptions.UnboundLocalError object>"
p31
sS'__class__'
p32
S"<type 'exceptions.UnboundLocalError'>"
p33
sS'__unicode__'
p34
S'<built-in method __unicode__ of exceptions.UnboundLocalError object>'
p35
sS'__delattr__'
p36
S"<method-wrapper '__delattr__' of exceptions.UnboundLocalError object>"
p37
sS'__subclasshook__'
p38
S'<built-in method __subclasshook__ of type object>'
p39
sS'__repr__'
p40
S"<method-wrapper '__repr__' of exceptions.UnboundLocalError object>"
p41
sS'args'
p42
S'("local variable \'tabla\' referenced before assignment",)'
p43
sS'__dict__'
p44
S'{}'
p45
sS'__sizeof__'
p46
S'<built-in method __sizeof__ of exceptions.UnboundLocalError object>'
p47
sS'__doc__'
p48
S"'Local name referenced but not bound to a value.'"
p49
sS'__init__'
p50
S"<method-wrapper '__init__' of exceptions.UnboundLocalError object>"
p51
sS'__new__'
p52
S'<built-in method __new__ of type object>'
p53
ssS'evalue'
p54
S"local variable 'tabla' referenced before assignment"
p55
sS'request'
p56
cgluon.html
XML_unpickle
p57
(S's\t\\\x00\x00<div><table><tr><td style="font-weight:bold;vertical-align:top;">ajax</td><td style="vertical-align:top;">:</td><td><div>False</div></td></tr><tr><td style="font-weight:bold;vertical-align:top;">application</td><td style="vertical-align:top;">:</td><td><div>evento</div></td></tr><tr><td style="font-weight:bold;vertical-align:top;">args</td><td style="vertical-align:top;">:</td><td><div><table></table></div></td></tr><tr><td style="font-weight:bold;vertical-align:top;">cid</td><td style="vertical-align:top;">:</td><td><div>None</div></td></tr><tr><td style="font-weight:bold;vertical-align:top;">client</td><td style="vertical-align:top;">:</td><td><div>127.0.0.1</div></td></tr><tr><td style="font-weight:bold;vertical-align:top;">controller</td><td style="vertical-align:top;">:</td><td><div>imprimir</div></td></tr><tr><td style="font-weight:bold;vertical-align:top;">cookies</td><td style="vertical-align:top;">:</td><td><div><table><tr><td style="font-weight:bold;vertical-align:top;">session_id_admin</td><td style="vertical-align:top;">:</td><td><div>127.0.0.1-806e7404-a13b-44e7-9efe-fc4bcdafd8d3<table><tr><td style="font-weight:bold;vertical-align:top;">comment</td><td style="vertical-align:top;">:</td><td><div></div></td></tr><tr><td style="font-weight:bold;vertical-align:top;">domain</td><td style="vertical-align:top;">:</td><td><div></div></td></tr><tr><td style="font-weight:bold;vertical-align:top;">expires</td><td style="vertical-align:top;">:</td><td><div></div></td></tr><tr><td style="font-weight:bold;vertical-align:top;">httponly</td><td style="vertical-align:top;">:</td><td><div></div></td></tr><tr><td style="font-weight:bold;vertical-align:top;">max-age</td><td style="vertical-align:top;">:</td><td><div></div></td></tr><tr><td style="font-weight:bold;vertical-align:top;">path</td><td style="vertical-align:top;">:</td><td><div></div></td></tr><tr><td style="font-weight:bold;vertical-align:top;">secure</td><td style="vertical-align:top;">:</td><td><div></div></td></tr><tr><td style="font-weight:bold;vertical-align:top;">version</td><td style="vertical-align:top;">:</td><td><div></div></td></tr></table></div></td></tr><tr><td style="font-weight:bold;vertical-align:top;">session_id_evento</td><td style="vertical-align:top;">:</td><td><div>127.0.0.1-edb718aa-31b9-4ac2-997b-e1fc0ca156b8<table><tr><td style="font-weight:bold;vertical-align:top;">comment</td><td style="vertical-align:top;">:</td><td><div></div></td></tr><tr><td style="font-weight:bold;vertical-align:top;">domain</td><td style="vertical-align:top;">:</td><td><div></div></td></tr><tr><td style="font-weight:bold;vertical-align:top;">expires</td><td style="vertical-align:top;">:</td><td><div></div></td></tr><tr><td style="font-weight:bold;vertical-align:top;">httponly</td><td style="vertical-align:top;">:</td><td><div></div></td></tr><tr><td style="font-weight:bold;vertical-align:top;">max-age</td><td style="vertical-align:top;">:</td><td><div></div></td></tr><tr><td style="font-weight:bold;vertical-align:top;">path</td><td style="vertical-align:top;">:</td><td><div></div></td></tr><tr><td style="font-weight:bold;vertical-align:top;">secure</td><td style="vertical-align:top;">:</td><td><div></div></td></tr><tr><td style="font-weight:bold;vertical-align:top;">version</td><td style="vertical-align:top;">:</td><td><div></div></td></tr></table></div></td></tr><tr><td style="font-weight:bold;vertical-align:top;">session_id_welcome</td><td style="vertical-align:top;">:</td><td><div>127.0.0.1-542cbb8c-f487-4964-881d-ce009dac8a82<table><tr><td style="font-weight:bold;vertical-align:top;">comment</td><td style="vertical-align:top;">:</td><td><div></div></td></tr><tr><td style="font-weight:bold;vertical-align:top;">domain</td><td style="vertical-align:top;">:</td><td><div></div></td></tr><tr><td style="font-weight:bold;vertical-align:top;">expires</td><td style="vertical-align:top;">:</td><td><div></div></td></tr><tr><td style="font-weight:bold;vertical-align:top;">httponly</td><td style="vertical-align:top;">:</td><td><div></div></td></tr><tr><td style="font-weight:bold;vertical-align:top;">max-age</td><td style="vertical-align:top;">:</td><td><div></div></td></tr><tr><td style="font-weight:bold;vertical-align:top;">path</td><td style="vertical-align:top;">:</td><td><div></div></td></tr><tr><td style="font-weight:bold;vertical-align:top;">secure</td><td style="vertical-align:top;">:</td><td><div></div></td></tr><tr><td style="font-weight:bold;vertical-align:top;">version</td><td style="vertical-align:top;">:</td><td><div></div></td></tr></table></div></td></tr></table></div></td></tr><tr><td style="font-weight:bold;vertical-align:top;">env</td><td style="vertical-align:top;">:</td><td><div><table><tr><td style="font-weight:bold;vertical-align:top;">HTTP_ACCEPT</td><td style="vertical-align:top;">:</td><td><div>text/html,application/xhtml+xml,application/xml;q=0.9,image/webp,image/apng,*/*;q=0.8,application/signed-exchange;v=b3</div></td></tr><tr><td style="font-weight:bold;vertical-align:top;">HTTP_ACCEPT_ENCODING</td><td style="vertical-align:top;">:</td><td><div>gzip, deflate, br</div></td></tr><tr><td style="font-weight:bold;vertical-align:top;">HTTP_ACCEPT_LANGUAGE</td><td style="vertical-align:top;">:</td><td><div>es-ES,es;q=0.9,en;q=0.8,gl;q=0.7</div></td></tr><tr><td style="font-weight:bold;vertical-align:top;">HTTP_CACHE_CONTROL</td><td style="vertical-align:top;">:</td><td><div>max-age=0</div></td></tr><tr><td style="font-weight:bold;vertical-align:top;">HTTP_CONNECTION</td><td style="vertical-align:top;">:</td><td><div>keep-alive</div></td></tr><tr><td style="font-weight:bold;vertical-align:top;">HTTP_COOKIE</td><td style="vertical-align:top;">:</td><td><div>session_id_admin=127.0.0.1-806e7404-a13b-44e7-9efe-fc4bcdafd8d3; session_id_evento=127.0.0.1-edb718aa-31b9-4ac2-997b-e1fc0ca156b8; session_id_welcome=127.0.0.1-542cbb8c-f487-4964-881d-ce009dac8a82</div></td></tr><tr><td style="font-weight:bold;vertical-align:top;">HTTP_HOST</td><td style="vertical-align:top;">:</td><td><div>127.0.0.1:8000</div></td></tr><tr><td style="font-weight:bold;vertical-align:top;">HTTP_UPGRADE_INSECURE_REQUESTS</td><td style="vertical-align:top;">:</td><td><div>1</div></td></tr><tr><td style="font-weight:bold;vertical-align:top;">HTTP_USER_AGENT</td><td style="vertical-align:top;">:</td><td><div>Mozilla/5.0 (Windows NT 6.1) AppleWebKit/537.36 (KHTML, like Gecko) Chrome/74.0.3729.157 Safari/537.36</div></td></tr><tr><td style="font-weight:bold;vertical-align:top;">PATH_INFO</td><td style="vertical-align:top;">:</td><td><div>/evento/imprimir/print_fecha1.html</div></td></tr><tr><td style="font-weight:bold;vertical-align:top;">QUERY_STRING</td><td style="vertical-align:top;">:</td><td><div></div></td></tr><tr><td style="font-weight:bold;vertical-align:top;">REMOTE_ADDR</td><td style="vertical-align:top;">:</td><td><div>127.0.0.1</div></td></tr><tr><td style="font-weight:bold;vertical-align:top;">REMOTE_PORT</td><td style="vertical-align:top;">:</td><td><div>12134</div></td></tr><tr><td style="font-weight:bold;vertical-align:top;">REQUEST_METHOD</td><td style="vertical-align:top;">:</td><td><div>GET</div></td></tr><tr><td style="font-weight:bold;vertical-align:top;">SCRIPT_NAME</td><td style="vertical-align:top;">:</td><td><div></div></td></tr><tr><td style="font-weight:bold;vertical-align:top;">SERVER_NAME</td><td style="vertical-align:top;">:</td><td><div>HaTaK3-PC</div></td></tr><tr><td style="font-weight:bold;vertical-align:top;">SERVER_PORT</td><td style="vertical-align:top;">:</td><td><div>8000</div></td></tr><tr><td style="font-weight:bold;vertical-align:top;">SERVER_PROTOCOL</td><td style="vertical-align:top;">:</td><td><div>HTTP/1.1</div></td></tr><tr><td style="font-weight:bold;vertical-align:top;">SERVER_SOFTWARE</td><td style="vertical-align:top;">:</td><td><div>Rocket 1.2.6</div></td></tr><tr><td style="font-weight:bold;vertical-align:top;">app_folders</td><td style="vertical-align:top;">:</td><td><div>set([&#x27;D:\\\\web2py\\\\applications\\\\evento\\\\&#x27;, &#x27;D:\\\\web2py\\\\applications\\\\admin\\\\&#x27;, &#x27;D:\\\\web2py\\\\applications\\\\welcome\\\\&#x27;])</div></td></tr><tr><td style="font-weight:bold;vertical-align:top;">applications_parent</td><td style="vertical-align:top;">:</td><td><div>D:\\web2py</div></td></tr><tr><td style="font-weight:bold;vertical-align:top;">cmd_args</td><td style="vertical-align:top;">:</td><td><div><table></table></div></td></tr><tr><td style="font-weight:bold;vertical-align:top;">cmd_options</td><td style="vertical-align:top;">:</td><td><div>&lt;Values at 0x27edd50: {&#x27;verbose&#x27;: False, &#x27;ip&#x27;: &#x27;127.0.0.1&#x27;, &#x27;debuglevel&#x27;: 30, &#x27;with_scheduler&#x27;: False, &#x27;shutdown_timeout&#x27;: 5, &#x27;taskbar&#x27;: False, &#x27;with_coverage&#x27;: False, &#x27;pid_filename&#x27;: &#x27;httpserver.pid&#x27;, &#x27;maxthreads&#x27;: None, &#x27;softcron&#x27;: False, &#x27;server_name&#x27;: &#x27;HaTaK3-PC&#x27;, &#x27;bpython&#x27;: False, &#x27;nogui&#x27;: False, &#x27;port&#x27;: 8000, &#x27;print_errors&#x27;: False, &#x27;extcron&#x27;: False, &#x27;runcron&#x27;: False, &#x27;run_system_tests&#x27;: False, &#x27;test&#x27;: None, &#x27;folder&#x27;: &#x27;D:\\\\web2py&#x27;, &#x27;config&#x27;: &#x27;&#x27;, &#x27;minthreads&#x27;: None, &#x27;shell&#x27;: None, &#x27;run&#x27;: &#x27;&#x27;, &#x27;log_filename&#x27;: &#x27;httpserver.log&#x27;, &#x27;profiler_dir&#x27;: None, &#x27;args&#x27;: [&#x27;&#x27;], &#x27;socket_timeout&#x27;: 5, &#x27;ssl_ca_certificate&#x27;: None, &#x27;scheduler&#x27;: None, &#x27;interfaces&#x27;: None, &#x27;ssl_private_key&#x27;: &#x27;&#x27;, &#x27;gae&#x27;: None, &#x27;password&#x27;: &#x27;******&#x27;, &#x27;request_queue_size&#x27;: 5, &#x27;ssl_certificate&#x27;: &#x27;&#x27;, &#x27;cronjob&#x27;: False, &#x27;numthreads&#x27;: None, &#x27;quiet&#x27;: False, &#x27;import_models&#x27;: False, &#x27;timeout&#x27;: 10, &#x27;plain&#x27;: False, &#x27;nobanner&#x27;: False}&gt;</div></td></tr><tr><td style="font-weight:bold;vertical-align:top;">db_sessions</td><td style="vertical-align:top;">:</td><td><div>set([])</div></td></tr><tr><td style="font-weight:bold;vertical-align:top;">debugging</td><td style="vertical-align:top;">:</td><td><div>False</div></td></tr><tr><td style="font-weight:bold;vertical-align:top;">gluon_parent</td><td style="vertical-align:top;">:</td><td><div>D:\\web2py</div></td></tr><tr><td style="font-weight:bold;vertical-align:top;">http_accept</td><td style="vertical-align:top;">:</td><td><div>text/html,application/xhtml+xml,application/xml;q=0.9,image/webp,image/apng,*/*;q=0.8,application/signed-exchange;v=b3</div></td></tr><tr><td style="font-weight:bold;vertical-align:top;">http_accept_encoding</td><td style="vertical-align:top;">:</td><td><div>gzip, deflate, br</div></td></tr><tr><td style="font-weight:bold;vertical-align:top;">http_accept_language</td><td style="vertical-align:top;">:</td><td><div>es-ES,es;q=0.9,en;q=0.8,gl;q=0.7</div></td></tr><tr><td style="font-weight:bold;vertical-align:top;">http_cache_control</td><td style="vertical-align:top;">:</td><td><div>max-age=0</div></td></tr><tr><td style="font-weight:bold;vertical-align:top;">http_connection</td><td style="vertical-align:top;">:</td><td><div>keep-alive</div></td></tr><tr><td style="font-weight:bold;vertical-align:top;">http_cookie</td><td style="vertical-align:top;">:</td><td><div>session_id_admin=127.0.0.1-806e7404-a13b-44e7-9efe-fc4bcdafd8d3; session_id_evento=127.0.0.1-edb718aa-31b9-4ac2-997b-e1fc0ca156b8; session_id_welcome=127.0.0.1-542cbb8c-f487-4964-881d-ce009dac8a82</div></td></tr><tr><td style="font-weight:bold;vertical-align:top;">http_host</td><td style="vertical-align:top;">:</td><td><div>127.0.0.1:8000</div></td></tr><tr><td style="font-weight:bold;vertical-align:top;">http_upgrade_insecure_requests</td><td style="vertical-align:top;">:</td><td><div>1</div></td></tr><tr><td style="font-weight:bold;vertical-align:top;">http_user_agent</td><td style="vertical-align:top;">:</td><td><div>Mozilla/5.0 (Windows NT 6.1) AppleWebKit/537.36 (KHTML, like Gecko) Chrome/74.0.3729.157 Safari/537.36</div></td></tr><tr><td style="font-weight:bold;vertical-align:top;">is_jython</td><td style="vertical-align:top;">:</td><td><div>False</div></td></tr><tr><td style="font-weight:bold;vertical-align:top;">is_pypy</td><td style="vertical-align:top;">:</td><td><div>False</div></td></tr><tr><td style="font-weight:bold;vertical-align:top;">is_source</td><td style="vertical-align:top;">:</td><td><div>False</div></td></tr><tr><td style="font-weight:bold;vertical-align:top;">local_hosts</td><td style="vertical-align:top;">:</td><td><div><table><tr><td><div>HaTaK3-PC</div></td></tr><tr><td><div>10.120.0.69</div></td></tr><tr><td><div>::ffff:127.0.0.1</div></td></tr><tr><td><div>::1</div></td></tr><tr><td><div>fe80::65c7:8cfe:1866:2ddb%12</div></td></tr><tr><td><div>fe80::6de3:fa60:8d1c:59aa%11</div></td></tr><tr><td><div>127.0.0.1</div></td></tr><tr><td><div>192.168.56.1</div></td></tr></table></div></td></tr><tr><td style="font-weight:bold;vertical-align:top;">path_info</td><td style="vertical-align:top;">:</td><td><div>/evento/imprimir/print_fecha1.html</div></td></tr><tr><td style="font-weight:bold;vertical-align:top;">query_string</td><td style="vertical-align:top;">:</td><td><div></div></td></tr><tr><td style="font-weight:bold;vertical-align:top;">remote_addr</td><td style="vertical-align:top;">:</td><td><div>127.0.0.1</div></td></tr><tr><td style="font-weight:bold;vertical-align:top;">remote_port</td><td style="vertical-align:top;">:</td><td><div>12134</div></td></tr><tr><td style="font-weight:bold;vertical-align:top;">request_method</td><td style="vertical-align:top;">:</td><td><div>GET</div></td></tr><tr><td style="font-weight:bold;vertical-align:top;">request_uri</td><td style="vertical-align:top;">:</td><td><div>/evento/imprimir/print_fecha1.html</div></td></tr><tr><td style="font-weight:bold;vertical-align:top;">script_name</td><td style="vertical-align:top;">:</td><td><div></div></td></tr><tr><td style="font-weight:bold;vertical-align:top;">server_name</td><td style="vertical-align:top;">:</td><td><div>HaTaK3-PC</div></td></tr><tr><td style="font-weight:bold;vertical-align:top;">server_port</td><td style="vertical-align:top;">:</td><td><div>8000</div></td></tr><tr><td style="font-weight:bold;vertical-align:top;">server_protocol</td><td style="vertical-align:top;">:</td><td><div>HTTP/1.1</div></td></tr><tr><td style="font-weight:bold;vertical-align:top;">server_software</td><td style="vertical-align:top;">:</td><td><div>Rocket 1.2.6</div></td></tr><tr><td style="font-weight:bold;vertical-align:top;">web2py_path</td><td style="vertical-align:top;">:</td><td><div>D:\\web2py</div></td></tr><tr><td style="font-weight:bold;vertical-align:top;">web2py_version</td><td style="vertical-align:top;">:</td><td><div>2.14.6-stable+timestamp.2016.05.10.00.21.47</div></td></tr><tr><td style="font-weight:bold;vertical-align:top;">wsgi.errors</td><td style="vertical-align:top;">:</td><td><div>&lt;open file &#x27;&lt;stderr&gt;&#x27;, mode &#x27;w&#x27; at 0x012AD0D0&gt;</div></td></tr><tr><td style="font-weight:bold;vertical-align:top;">wsgi.file_wrapper</td><td style="vertical-align:top;">:</td><td><div>&lt;class wsgiref.util.FileWrapper at 0x028EE4C8&gt;</div></td></tr><tr><td style="font-weight:bold;vertical-align:top;">wsgi.input</td><td style="vertical-align:top;">:</td><td><div>&lt;socket._fileobject object at 0x07978770&gt;</div></td></tr><tr><td style="font-weight:bold;vertical-align:top;">wsgi.multiprocess</td><td style="vertical-align:top;">:</td><td><div>False</div></td></tr><tr><td style="font-weight:bold;vertical-align:top;">wsgi.multithread</td><td style="vertical-align:top;">:</td><td><div>True</div></td></tr><tr><td style="font-weight:bold;vertical-align:top;">wsgi.run_once</td><td style="vertical-align:top;">:</td><td><div>False</div></td></tr><tr><td style="font-weight:bold;vertical-align:top;">wsgi.url_scheme</td><td style="vertical-align:top;">:</td><td><div>http</div></td></tr><tr><td style="font-weight:bold;vertical-align:top;">wsgi.version</td><td style="vertical-align:top;">:</td><td><div><table><tr><td><div>1</div></td></tr><tr><td><div>0</div></td></tr></table></div></td></tr><tr><td style="font-weight:bold;vertical-align:top;">wsgi_errors</td><td style="vertical-align:top;">:</td><td><div>&lt;open file &#x27;&lt;stderr&gt;&#x27;, mode &#x27;w&#x27; at 0x012AD0D0&gt;</div></td></tr><tr><td style="font-weight:bold;vertical-align:top;">wsgi_file_wrapper</td><td style="vertical-align:top;">:</td><td><div>&lt;class wsgiref.util.FileWrapper at 0x028EE4C8&gt;</div></td></tr><tr><td style="font-weight:bold;vertical-align:top;">wsgi_input</td><td style="vertical-align:top;">:</td><td><div>&lt;socket._fileobject object at 0x07978770&gt;</div></td></tr><tr><td style="font-weight:bold;vertical-align:top;">wsgi_multiprocess</td><td style="vertical-align:top;">:</td><td><div>False</div></td></tr><tr><td style="font-weight:bold;vertical-align:top;">wsgi_multithread</td><td style="vertical-align:top;">:</td><td><div>True</div></td></tr><tr><td style="font-weight:bold;vertical-align:top;">wsgi_run_once</td><td style="vertical-align:top;">:</td><td><div>False</div></td></tr><tr><td style="font-weight:bold;vertical-align:top;">wsgi_url_scheme</td><td style="vertical-align:top;">:</td><td><div>http</div></td></tr><tr><td style="font-weight:bold;vertical-align:top;">wsgi_version</td><td style="vertical-align:top;">:</td><td><div><table><tr><td><div>1</div></td></tr><tr><td><div>0</div></td></tr></table></div></td></tr></table></div></td></tr><tr><td style="font-weight:bold;vertical-align:top;">extension</td><td style="vertical-align:top;">:</td><td><div>html</div></td></tr><tr><td style="font-weight:bold;vertical-align:top;">folder</td><td style="vertical-align:top;">:</td><td><div>D:\\web2py\\applications\\evento\\</div></td></tr><tr><td style="font-weight:bold;vertical-align:top;">function</td><td style="vertical-align:top;">:</td><td><div>print_fecha1</div></td></tr><tr><td style="font-weight:bold;vertical-align:top;">global_settings</td><td style="vertical-align:top;">:</td><td><div><table><tr><td style="font-weight:bold;vertical-align:top;">app_folders</td><td style="vertical-align:top;">:</td><td><div>set([&#x27;D:\\\\web2py\\\\applications\\\\evento\\\\&#x27;, &#x27;D:\\\\web2py\\\\applications\\\\admin\\\\&#x27;, &#x27;D:\\\\web2py\\\\applications\\\\welcome\\\\&#x27;])</div></td></tr><tr><td style="font-weight:bold;vertical-align:top;">applications_parent</td><td style="vertical-align:top;">:</td><td><div>D:\\web2py</div></td></tr><tr><td style="font-weight:bold;vertical-align:top;">cmd_args</td><td style="vertical-align:top;">:</td><td><div><table></table></div></td></tr><tr><td style="font-weight:bold;vertical-align:top;">cmd_options</td><td style="vertical-align:top;">:</td><td><div>&lt;Values at 0x27edd50: {&#x27;verbose&#x27;: False, &#x27;ip&#x27;: &#x27;127.0.0.1&#x27;, &#x27;debuglevel&#x27;: 30, &#x27;with_scheduler&#x27;: False, &#x27;shutdown_timeout&#x27;: 5, &#x27;taskbar&#x27;: False, &#x27;with_coverage&#x27;: False, &#x27;pid_filename&#x27;: &#x27;httpserver.pid&#x27;, &#x27;maxthreads&#x27;: None, &#x27;softcron&#x27;: False, &#x27;server_name&#x27;: &#x27;HaTaK3-PC&#x27;, &#x27;bpython&#x27;: False, &#x27;nogui&#x27;: False, &#x27;port&#x27;: 8000, &#x27;print_errors&#x27;: False, &#x27;extcron&#x27;: False, &#x27;runcron&#x27;: False, &#x27;run_system_tests&#x27;: False, &#x27;test&#x27;: None, &#x27;folder&#x27;: &#x27;D:\\\\web2py&#x27;, &#x27;config&#x27;: &#x27;&#x27;, &#x27;minthreads&#x27;: None, &#x27;shell&#x27;: None, &#x27;run&#x27;: &#x27;&#x27;, &#x27;log_filename&#x27;: &#x27;httpserver.log&#x27;, &#x27;profiler_dir&#x27;: None, &#x27;args&#x27;: [&#x27;&#x27;], &#x27;socket_timeout&#x27;: 5, &#x27;ssl_ca_certificate&#x27;: None, &#x27;scheduler&#x27;: None, &#x27;interfaces&#x27;: None, &#x27;ssl_private_key&#x27;: &#x27;&#x27;, &#x27;gae&#x27;: None, &#x27;password&#x27;: &#x27;******&#x27;, &#x27;request_queue_size&#x27;: 5, &#x27;ssl_certificate&#x27;: &#x27;&#x27;, &#x27;cronjob&#x27;: False, &#x27;numthreads&#x27;: None, &#x27;quiet&#x27;: False, &#x27;import_models&#x27;: False, &#x27;timeout&#x27;: 10, &#x27;plain&#x27;: False, &#x27;nobanner&#x27;: False}&gt;</div></td></tr><tr><td style="font-weight:bold;vertical-align:top;">db_sessions</td><td style="vertical-align:top;">:</td><td><div>set([])</div></td></tr><tr><td style="font-weight:bold;vertical-align:top;">debugging</td><td style="vertical-align:top;">:</td><td><div>False</div></td></tr><tr><td style="font-weight:bold;vertical-align:top;">gluon_parent</td><td style="vertical-align:top;">:</td><td><div>D:\\web2py</div></td></tr><tr><td style="font-weight:bold;vertical-align:top;">is_jython</td><td style="vertical-align:top;">:</td><td><div>False</div></td></tr><tr><td style="font-weight:bold;vertical-align:top;">is_pypy</td><td style="vertical-align:top;">:</td><td><div>False</div></td></tr><tr><td style="font-weight:bold;vertical-align:top;">is_source</td><td style="vertical-align:top;">:</td><td><div>False</div></td></tr><tr><td style="font-weight:bold;vertical-align:top;">local_hosts</td><td style="vertical-align:top;">:</td><td><div><table><tr><td><div>HaTaK3-PC</div></td></tr><tr><td><div>10.120.0.69</div></td></tr><tr><td><div>::ffff:127.0.0.1</div></td></tr><tr><td><div>::1</div></td></tr><tr><td><div>fe80::65c7:8cfe:1866:2ddb%12</div></td></tr><tr><td><div>fe80::6de3:fa60:8d1c:59aa%11</div></td></tr><tr><td><div>127.0.0.1</div></td></tr><tr><td><div>192.168.56.1</div></td></tr></table></div></td></tr><tr><td style="font-weight:bold;vertical-align:top;">web2py_version</td><td style="vertical-align:top;">:</td><td><div>2.14.6-stable+timestamp.2016.05.10.00.21.47</div></td></tr></table></div></td></tr><tr><td style="font-weight:bold;vertical-align:top;">is_https</td><td style="vertical-align:top;">:</td><td><div>False</div></td></tr><tr><td style="font-weight:bold;vertical-align:top;">is_local</td><td style="vertical-align:top;">:</td><td><div>True</div></td></tr><tr><td style="font-weight:bold;vertical-align:top;">is_restful</td><td style="vertical-align:top;">:</td><td><div>False</div></td></tr><tr><td style="font-weight:bold;vertical-align:top;">is_scheduler</td><td style="vertical-align:top;">:</td><td><div>False</div></td></tr><tr><td style="font-weight:bold;vertical-align:top;">is_shell</td><td style="vertical-align:top;">:</td><td><div>False</div></td></tr><tr><td style="font-weight:bold;vertical-align:top;">now</td><td style="vertical-align:top;">:</td><td><div>datetime.datetime(2019, 5, 26, 22, 19, 9, 780000)</div></td></tr><tr><td style="font-weight:bold;vertical-align:top;">raw_args</td><td style="vertical-align:top;">:</td><td><div></div></td></tr><tr><td style="font-weight:bold;vertical-align:top;">raw_extension</td><td style="vertical-align:top;">:</td><td><div>html</div></td></tr><tr><td style="font-weight:bold;vertical-align:top;">url</td><td style="vertical-align:top;">:</td><td><div>/evento/imprimir/print_fecha1.html</div></td></tr><tr><td style="font-weight:bold;vertical-align:top;">utcnow</td><td style="vertical-align:top;">:</td><td><div>datetime.datetime(2019, 5, 27, 1, 19, 9, 780000)</div></td></tr><tr><td style="font-weight:bold;vertical-align:top;">wsgi</td><td style="vertical-align:top;">:</td><td><div>&lt;gluon.main.LazyWSGI object at 0x03AD89B0&gt;</div></td></tr></table></div>'
tRp58
sS'frames'
p59
(lp60
(dp61
S'file'
p62
S'D:\\web2py\\gluon\\restricted.py'
p63
sS'dump'
p64
(dp65
S'environment'
p66
S"{'A': <class 'gluon.html.A'>, 'ANY_OF': <class 'gluon.validators.ANY_OF'>, 'ASSIGNJS': <function ASSIGNJS>, 'AppConfig': <function AppConfig>, 'Auth': <class 'gluon.tools.Auth'>, 'B': <class 'gluon.html.B'>, 'BEAUTIFY': <class 'gluon.html.BEAUTIFY'>, 'BODY': <class 'gluon.html.BODY'>, 'BR': <class 'gluon.html.BR'>, 'BUTTON': <class 'gluon.html.BUTTON'>, ...}"
p67
sS'ccode'
p68
S'<code object <module> at 038D1848, file "D:\\web2...ications\\evento\\controllers/imprimir.py", line 1>'
p69
ssS'lnum'
p70
I227
sS'lines'
p71
(dp72
I224
S'            ccode = code'
p73
sI225
S'        else:'
p74
sI226
S'            ccode = compile2(code, layer)'
p75
sI227
S'        exec ccode in environment'
p76
sI228
S'    except HTTP:'
p77
sI229
S'        raise'
p78
sI230
S'    except RestrictedError:'
p79
sI231
S'        # do not encapsulate (obfuscate) the original RestrictedError'
p80
sI222
S'    try:'
p81
sI223
S'        if isinstance(code, types.CodeType):'
p82
ssS'call'
p83
S"(code='@auth.requires_login()\\ndef imprimir():\\n\\n\\treturn ...)\\n\\nresponse._vars=response._caller(print_fecha1)\\n', environment={'A': <class 'gluon.html.A'>, 'ANY_OF': <class 'gluon.validators.ANY_OF'>, 'ASSIGNJS': <function ASSIGNJS>, 'AppConfig': <function AppConfig>, 'Auth': <class 'gluon.tools.Auth'>, 'B': <class 'gluon.html.B'>, 'BEAUTIFY': <class 'gluon.html.BEAUTIFY'>, 'BODY': <class 'gluon.html.BODY'>, 'BR': <class 'gluon.html.BR'>, 'BUTTON': <class 'gluon.html.BUTTON'>, ...}, layer=r'D:\\web2py\\applications\\evento\\controllers/imprimir.py')"
p84
sS'func'
p85
S'restricted'
p86
sa(dp87
g62
S'D:\\web2py\\applications\\evento\\controllers\\imprimir.py'
p88
sg64
(dp89
sg70
I80
sg71
(dp90
I69
S'\tfrom reportlab.lib.pagesizes import A4'
p91
sI70
S'\tfrom reportlab.lib import colors'
p92
sI71
S'\timport os'
p93
sI72
S''
sI73
S''
sI74
S'\treturn (data,dict())'
p94
sI75
S''
sI76
S''
sI77
S'def print_fecha2():'
p95
sI78
S'\treturn dict()'
p96
ssg83
S'()'
p97
sg85
S'<module>'
p98
sa(dp99
g62
S'D:\\web2py\\gluon\\globals.py'
p100
sg64
(dp101
S'self'
p102
S'undefined'
p103
sS'f'
S'<function print_fecha1>'
p104
ssg70
I417
sg71
(dp105
I416
S'        self._vars = None'
p106
sI417
S'        self._caller = lambda f: f()'
p107
sI418
S'        self._view_environment = None'
p108
sI419
S'        self._custom_commit = None'
p109
sI420
S'        self._custom_rollback = None'
p110
sI421
S"        self.generic_patterns = ['*']"
p111
sI412
S"        self.flash = ''            # used by the default view layout"
p112
sI413
S'        self.meta = Storage()      # used by web2py_ajax.html'
p113
sI414
S'        self.menu = []             # used by the default view layout'
p114
sI415
S'        self.files = []            # used by web2py_ajax.html'
p115
ssg83
S'(f=<function print_fecha1>)'
p116
sg85
S'<lambda>'
p117
sa(dp118
g62
S'D:\\web2py\\applications\\evento\\controllers\\imprimir.py'
p119
sg64
(dp120
sg70
I43
sg71
(dp121
I38
S'                        rightMargin=72, leftMargin=72,'
p122
sI39
S'                        topMargin=72, bottomMargin=18)'
p123
sI40
S''
sI41
S'    \tstory = []'
p124
sI42
S'    \tlista=[("Nombre y Apellido","Dni","Telefono","Escuela","Fecha","Firma",)]'
p125
sI43
S'    \ttabla=tabla.styles'
p126
sI44
S''
sI45
S''
sI46
S''
sI47
S''
ssg83
S'()'
p127
sg85
S'print_fecha1'
p128
sasS'pyver'
p129
S'Python 2.7.9: D:\\web2py\\web2py.exe (prefix: )'
p130
sS'session'
p131
g57
(S's\n\n\x00\x00<div><table><tr><td style="font-weight:bold;vertical-align:top;">auth</td><td style="vertical-align:top;">:</td><td><div><table><tr><td style="font-weight:bold;vertical-align:top;">expiration</td><td style="vertical-align:top;">:</td><td><div>3600</div></td></tr><tr><td style="font-weight:bold;vertical-align:top;">hmac_key</td><td style="vertical-align:top;">:</td><td><div>bd24ecb0-201a-4daa-abfd-2682dc37555d</div></td></tr><tr><td style="font-weight:bold;vertical-align:top;">last_visit</td><td style="vertical-align:top;">:</td><td><div>datetime.datetime(2019, 5, 26, 22, 14, 31, 760000)</div></td></tr><tr><td style="font-weight:bold;vertical-align:top;">remember_me</td><td style="vertical-align:top;">:</td><td><div>False</div></td></tr><tr><td style="font-weight:bold;vertical-align:top;">user</td><td style="vertical-align:top;">:</td><td><div><table><tr><td style="font-weight:bold;vertical-align:top;">email</td><td style="vertical-align:top;">:</td><td><div>juan@ulivar.com</div></td></tr><tr><td style="font-weight:bold;vertical-align:top;">first_name</td><td style="vertical-align:top;">:</td><td><div>juan</div></td></tr><tr><td style="font-weight:bold;vertical-align:top;">id</td><td style="vertical-align:top;">:</td><td><div>1L</div></td></tr><tr><td style="font-weight:bold;vertical-align:top;">last_name</td><td style="vertical-align:top;">:</td><td><div>ulivar</div></td></tr><tr><td style="font-weight:bold;vertical-align:top;">registration_id</td><td style="vertical-align:top;">:</td><td><div></div></td></tr><tr><td style="font-weight:bold;vertical-align:top;">registration_key</td><td style="vertical-align:top;">:</td><td><div></div></td></tr><tr><td style="font-weight:bold;vertical-align:top;">reset_password_key</td><td style="vertical-align:top;">:</td><td><div></div></td></tr></table></div></td></tr><tr><td style="font-weight:bold;vertical-align:top;">user_groups</td><td style="vertical-align:top;">:</td><td><div><table><tr><td style="font-weight:bold;vertical-align:top;">2</td><td style="vertical-align:top;">:</td><td><div>Administrador</div></td></tr></table></div></td></tr></table></div></td></tr><tr><td style="font-weight:bold;vertical-align:top;">flash</td><td style="vertical-align:top;">:</td><td><div>None</div></td></tr><tr><td style="font-weight:bold;vertical-align:top;">last_orderby</td><td style="vertical-align:top;">:</td><td><div>None</div></td></tr><tr><td style="font-weight:bold;vertical-align:top;">last_query</td><td style="vertical-align:top;">:</td><td><div>db.evento.id&gt;0</div></td></tr></table></div>'
tRp132
sS'etype'
p133
S"<type 'exceptions.UnboundLocalError'>"
p134
sS'date'
p135
S'Sun May 26 22:19:09 2019'
p136
sS'response'
p137
g57
(S'sr\x1f\x00\x00<div><table><tr><td style="font-weight:bold;vertical-align:top;">body</td><td style="vertical-align:top;">:</td><td><div>&lt;cStringIO.StringO object at 0x03814E40&gt;</div></td></tr><tr><td style="font-weight:bold;vertical-align:top;">cookies</td><td style="vertical-align:top;">:</td><td><div><table><tr><td style="font-weight:bold;vertical-align:top;">session_id_evento</td><td style="vertical-align:top;">:</td><td><div>127.0.0.1-edb718aa-31b9-4ac2-997b-e1fc0ca156b8<table><tr><td style="font-weight:bold;vertical-align:top;">comment</td><td style="vertical-align:top;">:</td><td><div></div></td></tr><tr><td style="font-weight:bold;vertical-align:top;">domain</td><td style="vertical-align:top;">:</td><td><div></div></td></tr><tr><td style="font-weight:bold;vertical-align:top;">expires</td><td style="vertical-align:top;">:</td><td><div></div></td></tr><tr><td style="font-weight:bold;vertical-align:top;">httponly</td><td style="vertical-align:top;">:</td><td><div></div></td></tr><tr><td style="font-weight:bold;vertical-align:top;">max-age</td><td style="vertical-align:top;">:</td><td><div></div></td></tr><tr><td style="font-weight:bold;vertical-align:top;">path</td><td style="vertical-align:top;">:</td><td><div>/</div></td></tr><tr><td style="font-weight:bold;vertical-align:top;">secure</td><td style="vertical-align:top;">:</td><td><div></div></td></tr><tr><td style="font-weight:bold;vertical-align:top;">version</td><td style="vertical-align:top;">:</td><td><div></div></td></tr></table></div></td></tr></table></div></td></tr><tr><td style="font-weight:bold;vertical-align:top;">delimiters</td><td style="vertical-align:top;">:</td><td><div><table><tr><td><div>{{</div></td></tr><tr><td><div>}}</div></td></tr></table></div></td></tr><tr><td style="font-weight:bold;vertical-align:top;">files</td><td style="vertical-align:top;">:</td><td><div><table></table></div></td></tr><tr><td style="font-weight:bold;vertical-align:top;">flash</td><td style="vertical-align:top;">:</td><td><div></div></td></tr><tr><td style="font-weight:bold;vertical-align:top;">form_label_separator</td><td style="vertical-align:top;">:</td><td><div></div></td></tr><tr><td style="font-weight:bold;vertical-align:top;">formstyle</td><td style="vertical-align:top;">:</td><td><div>bootstrap3_inline</div></td></tr><tr><td style="font-weight:bold;vertical-align:top;">generic_patterns</td><td style="vertical-align:top;">:</td><td><div><table><tr><td><div>*</div></td></tr></table></div></td></tr><tr><td style="font-weight:bold;vertical-align:top;">google_analytics_id</td><td style="vertical-align:top;">:</td><td><div>None</div></td></tr><tr><td style="font-weight:bold;vertical-align:top;">headers</td><td style="vertical-align:top;">:</td><td><div><table><tr><td style="font-weight:bold;vertical-align:top;">X-Powered-By</td><td style="vertical-align:top;">:</td><td><div>web2py</div></td></tr></table></div></td></tr><tr><td style="font-weight:bold;vertical-align:top;">logo</td><td style="vertical-align:top;">:</td><td><div><a class="navbar-brand" href="http://www.web2py.com/" id="web2py-logo"><b>web<span>2</span>py</b>&trade;&nbsp;</a></div></td></tr><tr><td style="font-weight:bold;vertical-align:top;">menu</td><td style="vertical-align:top;">:</td><td><div><table><tr><td><div><table><tr><td><div>Inicio</div></td></tr><tr><td><div>False</div></td></tr><tr><td><div>/evento/default/principal</div></td></tr><tr><td><div><table></table></div></td></tr></table></div></td></tr><tr><td><div><table><tr><td><div>REGISTRO AL EVENTO</div></td></tr><tr><td><div>False</div></td></tr><tr><td><div>/evento/registro/hay</div></td></tr></table></div></td></tr><tr><td><div><table><tr><td><div>DEFINIR CUPOS</div></td></tr><tr><td><div>False</div></td></tr><tr><td><div>/evento/cupo/cupo</div></td></tr></table></div></td></tr><tr><td><div><table><tr><td><div>IMPRIMIR</div></td></tr><tr><td><div>False</div></td></tr><tr><td><div>/evento/IMPRIMIR/IMPRIMIR</div></td></tr></table></div></td></tr></table></div></td></tr><tr><td style="font-weight:bold;vertical-align:top;">meta</td><td style="vertical-align:top;">:</td><td><div><table><tr><td style="font-weight:bold;vertical-align:top;">author</td><td style="vertical-align:top;">:</td><td><div>Your Name &lt;you@example.com&gt;</div></td></tr><tr><td style="font-weight:bold;vertical-align:top;">description</td><td style="vertical-align:top;">:</td><td><div>a cool new app</div></td></tr><tr><td style="font-weight:bold;vertical-align:top;">generator</td><td style="vertical-align:top;">:</td><td><div>Web2py Web Framework</div></td></tr><tr><td style="font-weight:bold;vertical-align:top;">keywords</td><td style="vertical-align:top;">:</td><td><div><table><tr><td><div>web2py</div></td></tr><tr><td><div>python</div></td></tr><tr><td><div>framework</div></td></tr></table></div></td></tr></table></div></td></tr><tr><td style="font-weight:bold;vertical-align:top;">models_to_run</td><td style="vertical-align:top;">:</td><td><div><table><tr><td><div>^\\w+\\.py$</div></td></tr><tr><td><div>^imprimir/\\w+\\.py$</div></td></tr><tr><td><div>^imprimir/print_fecha1/\\w+\\.py$</div></td></tr></table></div></td></tr><tr><td style="font-weight:bold;vertical-align:top;">postprocessing</td><td style="vertical-align:top;">:</td><td><div><table></table></div></td></tr><tr><td style="font-weight:bold;vertical-align:top;">session_client</td><td style="vertical-align:top;">:</td><td><div>127.0.0.1</div></td></tr><tr><td style="font-weight:bold;vertical-align:top;">session_cookie_compression_level</td><td style="vertical-align:top;">:</td><td><div>None</div></td></tr><tr><td style="font-weight:bold;vertical-align:top;">session_cookie_expires</td><td style="vertical-align:top;">:</td><td><div>None</div></td></tr><tr><td style="font-weight:bold;vertical-align:top;">session_data_name</td><td style="vertical-align:top;">:</td><td><div>session_data_evento</div></td></tr><tr><td style="font-weight:bold;vertical-align:top;">session_file</td><td style="vertical-align:top;">:</td><td><div>&lt;open file &#x27;D:\\\\web2py\\\\applications\\\\evento\\\\sessions\\\\00e\\\\172\\\\127.0.0.1-edb718aa-31b9-4ac2-997b-e1fc0ca156b8&#x27;, mode &#x27;rb+&#x27; at 0x03547E90&gt;</div></td></tr><tr><td style="font-weight:bold;vertical-align:top;">session_filename</td><td style="vertical-align:top;">:</td><td><div>D:\\web2py\\applications\\evento\\sessions\\127.0.0.1-edb718aa-31b9-4ac2-997b-e1fc0ca156b8</div></td></tr><tr><td style="font-weight:bold;vertical-align:top;">session_hash</td><td style="vertical-align:top;">:</td><td><div>0902fdbf7db6ace65de5d1d8bf9b5639</div></td></tr><tr><td style="font-weight:bold;vertical-align:top;">session_id</td><td style="vertical-align:top;">:</td><td><div>127.0.0.1-edb718aa-31b9-4ac2-997b-e1fc0ca156b8</div></td></tr><tr><td style="font-weight:bold;vertical-align:top;">session_id_name</td><td style="vertical-align:top;">:</td><td><div>session_id_evento</div></td></tr><tr><td style="font-weight:bold;vertical-align:top;">session_locked</td><td style="vertical-align:top;">:</td><td><div>True</div></td></tr><tr><td style="font-weight:bold;vertical-align:top;">session_masterapp</td><td style="vertical-align:top;">:</td><td><div>evento</div></td></tr><tr><td style="font-weight:bold;vertical-align:top;">session_new</td><td style="vertical-align:top;">:</td><td><div>False</div></td></tr><tr><td style="font-weight:bold;vertical-align:top;">session_storage_type</td><td style="vertical-align:top;">:</td><td><div>file</div></td></tr><tr><td style="font-weight:bold;vertical-align:top;">status</td><td style="vertical-align:top;">:</td><td><div>200</div></td></tr><tr><td style="font-weight:bold;vertical-align:top;">subtitle</td><td style="vertical-align:top;">:</td><td><div></div></td></tr><tr><td style="font-weight:bold;vertical-align:top;">title</td><td style="vertical-align:top;">:</td><td><div>Evento</div></td></tr><tr><td style="font-weight:bold;vertical-align:top;">view</td><td style="vertical-align:top;">:</td><td><div>imprimir/print_fecha1.html</div></td></tr></table></div>'
tRp138
sS'locals'
p139
(dp140
S'PythonPreformatted'
p141
S'<class reportlab.platypus.xpreformatted.PythonPreformatted>'
p142
sS'IndexingFlowable'
p143
S'<class reportlab.platypus.doctemplate.IndexingFlowable>'
p144
sS'startfile'
p145
S'<built-in function startfile>'
p146
sS'LCActionFlowable'
p147
S'<class reportlab.platypus.doctemplate.LCActionFlowable>'
p148
sS'colors'
p149
S"<module 'reportlab.lib.colors' from 'reportlab\\lib\\colors.py'>"
p150
sS'BaseDocTemplate'
p151
S'<class reportlab.platypus.doctemplate.BaseDocTemplate>'
p152
sS'DocWhile'
p153
S'<class reportlab.platypus.flowables.DocWhile>'
p154
sS'SimpleDocTemplate'
p155
S'<class reportlab.platypus.doctemplate.SimpleDocTemplate>'
p156
sS'tables'
p157
S"<module 'reportlab.platypus.tables' from 'reportlab\\platypus\\tables.py'>"
p158
sS'CellStyle'
p159
S'<class reportlab.platypus.tables.CellStyle>'
p160
sS'CondPageBreak'
p161
S'<class reportlab.platypus.flowables.CondPageBreak>'
p162
sS'ParaFrag'
p163
S'<class reportlab.platypus.paraparser.ParaFrag>'
p164
sS'ActionFlowable'
p165
S'<class reportlab.platypus.doctemplate.ActionFlowable>'
p166
sS'BulletDrawer'
p167
S'<class reportlab.platypus.flowables.BulletDrawer>'
p168
sS'CallerMacro'
p169
S'<class reportlab.platypus.flowables.CallerMacro>'
p170
sS'PageAccumulator'
p171
S'<class reportlab.platypus.doctemplate.PageAccumulator>'
p172
sS'PageBreakIfNotEmpty'
p173
S'<class reportlab.platypus.flowables.PageBreakIfNotEmpty>'
p174
sS'ParagraphAndImage'
p175
S'<class reportlab.platypus.flowables.ParagraphAndImage>'
p176
sS'PTOContainer'
p177
S'<class reportlab.platypus.flowables.PTOContainer>'
p178
sS'LIIndenter'
p179
S'<class reportlab.platypus.flowables.LIIndenter>'
p180
sS'Paragraph'
p181
S'<class reportlab.platypus.paragraph.Paragraph>'
p182
sS'KeepTogether'
p183
S'<class reportlab.platypus.flowables.KeepTogether>'
p184
sS'DocPara'
p185
S'<class reportlab.platypus.flowables.DocPara>'
p186
sS'CurrentFrameFlowable'
p187
S'<class reportlab.platypus.doctemplate.CurrentFrameFlowable>'
p188
sS'ListFlowable'
p189
S'<class reportlab.platypus.flowables.ListFlowable>'
p190
sS'DocAssert'
p191
S'<class reportlab.platypus.flowables.DocAssert>'
p192
sS'getSampleStyleSheet'
p193
S'<function getSampleStyleSheet>'
p194
sS'NullDraw'
p195
S'<class reportlab.platypus.flowables.NullDraw>'
p196
sS'TopPadder'
p197
S'<class reportlab.platypus.flowables.TopPadder>'
p198
sS'TraceInfo'
p199
S'<class reportlab.platypus.flowables.TraceInfo>'
p200
sS'AnchorFlowable'
p201
S'<class reportlab.platypus.flowables.AnchorFlowable>'
p202
sS'xpreformatted'
p203
S"<module 'reportlab.platypus.xpreformatted' from 'reportlab\\platypus\\xpreformatted.py'>"
p204
sS'uuid4'
p205
S'<function uuid4>'
p206
sS'FrameActionFlowable'
p207
S'<class reportlab.platypus.doctemplate.FrameActionFlowable>'
p208
sS'escape'
p209
S'<function escape>'
p210
sS'DDIndenter'
p211
S'<class reportlab.platypus.flowables.DDIndenter>'
p212
sS'flowables'
p213
S"<module 'reportlab.platypus.flowables' from 'reportlab\\platypus\\flowables.py'>"
p214
sS'NotAtTopPageBreak'
p215
S'<class reportlab.platypus.doctemplate.NotAtTopPageBreak>'
p216
sS'TA_CENTER'
p217
S'1'
sS'XBox'
p218
S'<class reportlab.platypus.flowables.XBox>'
p219
sS'ListItem'
p220
S'<class reportlab.platypus.flowables.ListItem>'
p221
sS'set_evento'
p222
S'<Rows (2)>'
p223
sS'UseUpSpace'
p224
S'<class reportlab.platypus.flowables.UseUpSpace>'
p225
sS'LayoutError'
p226
S"<class 'reportlab.platypus.doctemplate.LayoutError'>"
p227
sS'ParaParser'
p228
S'<class reportlab.platypus.paraparser.ParaParser>'
p229
sS'FailOnDraw'
p230
S'<class reportlab.platypus.flowables.FailOnDraw>'
p231
sS'DocIf'
p232
S'<class reportlab.platypus.flowables.DocIf>'
p233
sS'paraparser'
p234
S"<module 'reportlab.platypus.paraparser' from 'reportlab\\platypus\\paraparser.py'>"
p235
sS'TableStyle'
p236
S'<class reportlab.platypus.tables.TableStyle>'
p237
sS'Image'
p238
S'<class reportlab.platypus.flowables.Image>'
p239
sS'FrameBG'
p240
S'<class reportlab.platypus.flowables.FrameBG>'
p241
sS'splitLines'
p242
S'<function splitLines>'
p243
sS'NextFrameFlowable'
p244
S'<class reportlab.platypus.doctemplate.NextFrameFlowable>'
p245
sS'FrameBreak'
p246
S'<reportlab.platypus.doctemplate._FrameBreak instance>'
p247
sS'os'
p248
S"<module 'os' from 'D:\\web2py\\library.zip\\os.pyc'>"
p249
sS'LongTable'
p250
S'<class reportlab.platypus.tables.LongTable>'
p251
sS'DocAssign'
p252
S'<class reportlab.platypus.flowables.DocAssign>'
p253
sS'ParaLines'
p254
S'<class reportlab.platypus.paragraph.ParaLines>'
p255
sS'Flowable'
p256
S'<class reportlab.platypus.flowables.Flowable>'
p257
sS'SetTopFlowables'
p258
S'<class reportlab.platypus.flowables.SetTopFlowables>'
p259
sS'Preformatted'
p260
S'<class reportlab.platypus.flowables.Preformatted>'
p261
sS'FailOnWrap'
p262
S'<class reportlab.platypus.flowables.FailOnWrap>'
p263
sg59
S"<module 'reportlab.platypus.frames' from 'reportlab\\platypus\\frames.py'>"
p264
sS'story'
p265
S'[]'
p266
sS'BalancedColumns'
p267
S'<class reportlab.platypus.flowables.BalancedColumns>'
p268
sS'PageTemplate'
p269
S'<class reportlab.platypus.doctemplate.PageTemplate>'
p270
sS'json'
p271
S"<module 'json' from 'D:\\web2py\\library.zip\\json\\__init__.pyc'>"
p272
sS'ImageAndFlowables'
p273
S'<class reportlab.platypus.flowables.ImageAndFlowables>'
p274
sS'TA_RIGHT'
p275
S'2'
sS'XPreformatted'
p276
S'<class reportlab.platypus.xpreformatted.XPreformatted>'
p277
sS'lista'
p278
S"[('Nombre y Apellido', 'Dni', 'Telefono', 'Escuela', 'Fecha', 'Firma')]"
p279
sS'SetPageTopFlowables'
p280
S'<class reportlab.platypus.flowables.SetPageTopFlowables>'
p281
sS'cleanBlockQuotedText'
p282
S'<function cleanBlockQuotedText>'
p283
sS'mm'
p284
S'2.834645669291339'
p285
sS'Frame'
p286
S'<class reportlab.platypus.frames.Frame>'
p287
sS'doctemplate'
p288
S"<module 'reportlab.platypus.doctemplate' from 'reportlab\\platypus\\doctemplate.py'>"
p289
sS'Spacer'
p290
S'<class reportlab.platypus.flowables.Spacer>'
p291
sS'paragraph'
p292
S"<module 'reportlab.platypus.paragraph' from 'reportlab\\platypus\\paragraph.py'>"
p293
sS'DocExec'
p294
S'<class reportlab.platypus.flowables.DocExec>'
p295
sS'defaultPageSize'
p296
S'(595.2755905511812, 841.8897637795277)'
p297
sS'NextPageTemplate'
p298
S'<class reportlab.platypus.doctemplate.NextPageTemplate>'
p299
sS'multicol'
p300
S"<module 'reportlab.platypus.multicol' from 'reportlab\\platypus\\multicol.py'>"
p301
sS'ShowBoundaryValue'
p302
S'<class reportlab.platypus.frames.ShowBoundaryValue>'
p303
sS'splitLine'
p304
S'<function splitLine>'
p305
sS'FragLine'
p306
S'<class reportlab.platypus.paragraph.FragLine>'
p307
sS'TA_LEFT'
p308
S'0'
sS'A4'
p309
S'(595.2755905511812, 841.8897637795277)'
p310
sS'inch'
p311
S'72.0'
p312
sS'NullActionFlowable'
p313
S'<class reportlab.platypus.doctemplate.NullActionFlowable>'
p314
sS'Macro'
p315
S'<class reportlab.platypus.flowables.Macro>'
p316
sS'PageBreak'
p317
S'<class reportlab.platypus.flowables.PageBreak>'
p318
sS'letter'
p319
S'(612.0, 792.0)'
p320
sS'KeepInFrame'
p321
S'<class reportlab.platypus.flowables.KeepInFrame>'
p322
sS'PageBegin'
p323
S'<reportlab.platypus.doctemplate.LCActionFlowable instance>'
p324
sS'MultiCol'
p325
S'<class reportlab.platypus.multicol.MultiCol>'
p326
sS'FrameSplitter'
p327
S'<class reportlab.platypus.flowables.FrameSplitter>'
p328
sS'doc'
p329
S'<reportlab.platypus.doctemplate.SimpleDocTemplate instance>'
p330
sS'TA_JUSTIFY'
p331
S'4'
sS'HRFlowable'
p332
S'<class reportlab.platypus.flowables.HRFlowable>'
p333
sS'SlowPageBreak'
p334
S'<class reportlab.platypus.flowables.SlowPageBreak>'
p335
sS'Indenter'
p336
S'<class reportlab.platypus.doctemplate.Indenter>'
p337
sS'Table'
p338
S'<class reportlab.platypus.tables.Table>'
p339
sssS'traceback'
p340
S'Traceback (most recent call last):\n  File "D:\\web2py\\gluon\\restricted.py", line 227, in restricted\n    exec ccode in environment\n  File "D:\\web2py\\applications\\evento\\controllers/imprimir.py", line 80, in <module>\n  File "D:\\web2py\\gluon\\globals.py", line 417, in <lambda>\n    self._caller = lambda f: f()\n  File "D:\\web2py\\applications\\evento\\controllers/imprimir.py", line 43, in print_fecha1\n    tabla=tabla.styles\nUnboundLocalError: local variable \'tabla\' referenced before assignment\n'
p341
s.